; Function Attrs: mustprogress uwtable
define hidden noundef i32 @_ZN5ceres8internal21RefinedSparseCholesky9FactorizeEPNS0_25CompressedRowSparseMatrixEPNSt7__cxx1112basic_stringIcSt11char_traitsIcESaIcEEE(ptr noundef nonnull align 8 captures(none) dereferenceable(32) initializes((24, 32)) %0, ptr noundef %1, ptr noundef %2) unnamed_addr #0 align 2 {
  %4 = getelementptr inbounds nuw i8, ptr %0, i64 24
  store ptr %1, ptr %4, align 8, !tbaa !42
  %5 = getelementptr inbounds nuw i8, ptr %0, i64 8
  %6 = load ptr, ptr %5, align 8, !tbaa !27
  %7 = load ptr, ptr %6, align 8, !tbaa !35
  %8 = getelementptr inbounds nuw i8, ptr %7, i64 24
  %9 = load ptr, ptr %8, align 8
  %10 = tail call noundef i32 %9(ptr noundef nonnull align 8 dereferenceable(8) %6, ptr noundef %1, ptr noundef %2)
  ret i32 %10
}